; Function Attrs: nounwind uwtable
define ptr @PEM_read_ECPrivateKey(ptr noundef %0, ptr noundef captures(address_is_null) %1, ptr noundef %2, ptr noundef %3) local_unnamed_addr #0 {
  %5 = tail call ptr @PEM_read_PrivateKey(ptr noundef %0, ptr noundef null, ptr noundef %2, ptr noundef %3) #4
  %.not.i = icmp eq ptr %5, null
  br i1 %.not.i, label %pkey_get_eckey.exit, label %6

6:                                                ; preds = %4
  %7 = tail call ptr @EVP_PKEY_get1_EC_KEY(ptr noundef nonnull %5) #4
  tail call void @EVP_PKEY_free(ptr noundef nonnull %5) #4
  %.not13.i = icmp eq ptr %7, null
  br i1 %.not13.i, label %pkey_get_eckey.exit, label %8

8:                                                ; preds = %6
  %.not14.i = icmp eq ptr %1, null
  br i1 %.not14.i, label %pkey_get_eckey.exit, label %9

9:                                                ; preds = %8
  %10 = load ptr, ptr %1, align 8, !tbaa !10
  tail call void @EC_KEY_free(ptr noundef %10) #4
  store ptr %7, ptr %1, align 8, !tbaa !10
  br label %pkey_get_eckey.exit

pkey_get_eckey.exit:                              ; preds = %4, %6, %8, %9
  %.0.i = phi ptr [ null, %4 ], [ null, %6 ], [ %7, %9 ], [ %7, %8 ]
  ret ptr %.0.i
}